target datalayout = "e-m:e-p270:32:32-p271:32:32-p272:64:64-i64:64-i128:128-f80:128-n8:16:32:64-S128"
target triple = "x86_64-pc-linux-gnu"

%"struct.clang::HeaderDesc" = type { i16 }
%"struct.clang::Builtin::Info" = type <{ %"class.llvm::StringLiteral", ptr, ptr, ptr, %"struct.clang::HeaderDesc", i16, [4 x i8] }>
%"class.llvm::StringLiteral" = type { %"class.llvm::StringRef" }
%"class.llvm::StringRef" = type { ptr, i64 }
%"class.clang::Builtin::Context" = type { %"class.llvm::ArrayRef", %"class.llvm::ArrayRef" }
%"class.llvm::ArrayRef" = type { ptr, i64 }

; Function Attrs: mustprogress nounwind uwtable
define linkonce_odr hidden noundef i64 @_ZNK4llvm8ArrayRefIN5clang7Builtin4InfoEE4sizeEv(ptr noundef nonnull align 8 dereferenceable(16) %0) #0 comdat align 2 {
  %2 = alloca ptr, align 8
  store ptr %0, ptr %2, align 8
  %3 = load ptr, ptr %2, align 8
  %4 = getelementptr inbounds nuw %"class.llvm::ArrayRef", ptr %3, i32 0, i32 1
  %5 = load i64, ptr %4, align 8
  ret i64 %5
}

; Function Attrs: mustprogress nounwind uwtable
define linkonce_odr hidden noundef nonnull align 8 dereferenceable(44) ptr @_ZNK4llvm8ArrayRefIN5clang7Builtin4InfoEEixEm(ptr noundef nonnull align 8 dereferenceable(16) %0, i64 noundef %1) #0 comdat align 2 {
  %3 = alloca ptr, align 8
  %4 = alloca i64, align 8
  store ptr %0, ptr %3, align 8
  store i64 %1, ptr %4, align 8
  %5 = load ptr, ptr %3, align 8
  %6 = getelementptr inbounds nuw %"class.llvm::ArrayRef", ptr %5, i32 0, i32 0
  %7 = load ptr, ptr %6, align 8
  %8 = load i64, ptr %4, align 8
  %9 = getelementptr inbounds %"struct.clang::Builtin::Info", ptr %7, i64 %8
  ret ptr %9
}

; Function Attrs: mustprogress nounwind uwtable
define linkonce_odr hidden noundef i32 @_ZNK5clang7Builtin7Context15getAuxBuiltinIDEj(ptr noundef nonnull align 8 dereferenceable(32) %0, i32 noundef %1) #0 comdat align 2 {
  %3 = alloca ptr, align 8
  %4 = alloca i32, align 4
  store ptr %0, ptr %3, align 8
  store i32 %1, ptr %4, align 4
  %5 = load ptr, ptr %3, align 8
  %6 = load i32, ptr %4, align 4
  %7 = zext i32 %6 to i64
  %8 = getelementptr inbounds nuw %"class.clang::Builtin::Context", ptr %5, i32 0, i32 0
  %9 = call noundef i64 @_ZNK4llvm8ArrayRefIN5clang7Builtin4InfoEE4sizeEv(ptr noundef nonnull align 8 dereferenceable(16) %8)
  %10 = sub i64 %7, %9
  %11 = trunc i64 %10 to i32
  ret i32 %11
}

; Function Attrs: mustprogress nounwind uwtable
define linkonce_odr hidden noundef zeroext i1 @_ZNK5clang7Builtin7Context14isAuxBuiltinIDEj(ptr noundef nonnull align 8 dereferenceable(32) %0, i32 noundef %1) #0 comdat align 2 {
  %3 = alloca ptr, align 8
  %4 = alloca i32, align 4
  store ptr %0, ptr %3, align 8
  store i32 %1, ptr %4, align 4
  %5 = load ptr, ptr %3, align 8
  %6 = load i32, ptr %4, align 4
  %7 = zext i32 %6 to i64
  %8 = getelementptr inbounds nuw %"class.clang::Builtin::Context", ptr %5, i32 0, i32 0
  %9 = call noundef i64 @_ZNK4llvm8ArrayRefIN5clang7Builtin4InfoEE4sizeEv(ptr noundef nonnull align 8 dereferenceable(16) %8)
  %10 = add i64 1408, %9
  %11 = icmp uge i64 %7, %10
  ret i1 %11
}

; Function Attrs: mustprogress nounwind uwtable
define dso_local noundef nonnull align 8 dereferenceable(44) ptr @_ZNK5clang7Builtin7Context9getRecordEj(ptr noundef nonnull align 8 dereferenceable(32) %0, i32 noundef %1) #0 align 2 {
  %3 = alloca ptr, align 8
  %4 = alloca ptr, align 8
  %5 = alloca i32, align 4
  store ptr %0, ptr %4, align 8
  store i32 %1, ptr %5, align 4
  %6 = load ptr, ptr %4, align 8
  %7 = load i32, ptr %5, align 4
  %8 = icmp ult i32 %7, 1408
  br i1 %8, label %9, label %13

9:                                                ; preds = %2
  %10 = load i32, ptr %5, align 4
  %11 = zext i32 %10 to i64
  %12 = getelementptr inbounds [1408 x %"struct.clang::Builtin::Info"], ptr @_ZL11BuiltinInfo, i64 0, i64 %11
  store ptr %12, ptr %3, align 8
  br label %29

13:                                               ; preds = %2
  %14 = load i32, ptr %5, align 4
  %15 = call noundef zeroext i1 @_ZNK5clang7Builtin7Context14isAuxBuiltinIDEj(ptr noundef nonnull align 8 dereferenceable(32) %6, i32 noundef %14)
  br i1 %15, label %16, label %23

16:                                               ; preds = %13
  %17 = getelementptr inbounds nuw %"class.clang::Builtin::Context", ptr %6, i32 0, i32 1
  %18 = load i32, ptr %5, align 4
  %19 = call noundef i32 @_ZNK5clang7Builtin7Context15getAuxBuiltinIDEj(ptr noundef nonnull align 8 dereferenceable(32) %6, i32 noundef %18)
  %20 = sub i32 %19, 1408
  %21 = zext i32 %20 to i64
  %22 = call noundef nonnull align 8 dereferenceable(44) ptr @_ZNK4llvm8ArrayRefIN5clang7Builtin4InfoEEixEm(ptr noundef nonnull align 8 dereferenceable(16) %17, i64 noundef %21)
  store ptr %22, ptr %3, align 8
  br label %29

23:                                               ; preds = %13
  %24 = getelementptr inbounds nuw %"class.clang::Builtin::Context", ptr %6, i32 0, i32 0
  %25 = load i32, ptr %5, align 4
  %26 = sub i32 %25, 1408
  %27 = zext i32 %26 to i64
  %28 = call noundef nonnull align 8 dereferenceable(44) ptr @_ZNK4llvm8ArrayRefIN5clang7Builtin4InfoEEixEm(ptr noundef nonnull align 8 dereferenceable(16) %24, i64 noundef %27)
  store ptr %28, ptr %3, align 8
  br label %29

29:                                               ; preds = %23, %16, %9
  %30 = load ptr, ptr %3, align 8
  ret ptr %30
}

; Function Attrs: mustprogress nounwind uwtable
define dso_local noundef zeroext i1 @_ZNK5clang7Builtin7Context6isLikeEjRjRbPKc(ptr noundef nonnull align 8 dereferenceable(32) %0, i32 noundef %1, ptr noundef nonnull align 4 dereferenceable(4) %2, ptr noundef nonnull align 1 dereferenceable(1) %3, ptr noundef %4) #0 align 2 {
  %6 = alloca i1, align 1
  %7 = alloca ptr, align 8
  %8 = alloca i32, align 4
  %9 = alloca ptr, align 8
  %10 = alloca ptr, align 8
  %11 = alloca ptr, align 8
  %12 = alloca ptr, align 8
  store ptr %0, ptr %7, align 8
  store i32 %1, ptr %8, align 4
  store ptr %2, ptr %9, align 8
  store ptr %3, ptr %10, align 8
  store ptr %4, ptr %11, align 8
  %13 = load ptr, ptr %7, align 8
  %14 = load i32, ptr %8, align 4
  %15 = call noundef nonnull align 8 dereferenceable(44) ptr @_ZNK5clang7Builtin7Context9getRecordEj(ptr noundef nonnull align 8 dereferenceable(32) %13, i32 noundef %14)
  %16 = getelementptr inbounds nuw %"struct.clang::Builtin::Info", ptr %15, i32 0, i32 2
  %17 = load ptr, ptr %16, align 8
  %18 = load ptr, ptr %11, align 8
  %19 = call noundef ptr @strpbrk(ptr noundef %17, ptr noundef %18) #7
  store ptr %19, ptr %12, align 8
  %20 = load ptr, ptr %12, align 8
  %21 = icmp ne ptr %20, null
  br i1 %21, label %23, label %22

22:                                               ; preds = %5
  store i1 false, ptr %6, align 1
  br label %42

23:                                               ; preds = %5
  %24 = load ptr, ptr %12, align 8
  %25 = load i8, ptr %24, align 1
  %26 = sext i8 %25 to i32
  %27 = load ptr, ptr %11, align 8
  %28 = getelementptr inbounds i8, ptr %27, i64 1
  %29 = load i8, ptr %28, align 1
  %30 = sext i8 %29 to i32
  %31 = icmp eq i32 %26, %30
  %32 = load ptr, ptr %10, align 8
  %33 = zext i1 %31 to i8
  store i8 %33, ptr %32, align 1
  %34 = load ptr, ptr %12, align 8
  %35 = getelementptr inbounds i8, ptr %34, i32 1
  store ptr %35, ptr %12, align 8
  %36 = load ptr, ptr %12, align 8
  %37 = getelementptr inbounds i8, ptr %36, i32 1
  store ptr %37, ptr %12, align 8
  %38 = load ptr, ptr %12, align 8
  %39 = call i64 @strtol(ptr noundef %38, ptr noundef null, i32 noundef 10) #8
  %40 = trunc i64 %39 to i32
  %41 = load ptr, ptr %9, align 8
  store i32 %40, ptr %41, align 4
  store i1 true, ptr %6, align 1
  br label %42

42:                                               ; preds = %23, %22
  %43 = load i1, ptr %6, align 1
  ret i1 %43
}