; Function Attrs: mustprogress nofree nounwind willreturn uwtable
define dso_local noundef zeroext i1 @_ZNK5clang7Builtin7Context6isLikeEjRjRbPKc(ptr noundef nonnull readonly align 8 captures(none) dereferenceable(32) %0, i32 noundef %1, ptr noundef nonnull writeonly align 4 captures(none) dereferenceable(4) %2, ptr noundef nonnull writeonly align 1 captures(none) dereferenceable(1) %3, ptr noundef readonly captures(none) %4) local_unnamed_addr #5 align 2 {
  %6 = icmp ult i32 %1, 1408
  %7 = zext i32 %1 to i64
  br i1 %6, label %8, label %10

8:                                                ; preds = %5
  %9 = getelementptr inbounds nuw [1408 x %"struct.clang::Builtin::Info"], ptr @_ZL11BuiltinInfo, i64 0, i64 %7
  br label %_ZNK5clang7Builtin7Context9getRecordEj.exit

10:                                               ; preds = %5
  %11 = getelementptr inbounds nuw i8, ptr %0, i64 8
  %12 = load i64, ptr %11, align 8
  %13 = add i64 %12, 1408
  %.not.i = icmp ugt i64 %13, %7
  br i1 %.not.i, label %22, label %14

14:                                               ; preds = %10
  %15 = getelementptr inbounds nuw i8, ptr %0, i64 16
  %16 = trunc i64 %12 to i32
  %17 = add i32 %1, -1408
  %18 = sub i32 %17, %16
  %19 = zext i32 %18 to i64
  %20 = load ptr, ptr %15, align 8
  %21 = getelementptr inbounds nuw %"struct.clang::Builtin::Info", ptr %20, i64 %19
  br label %_ZNK5clang7Builtin7Context9getRecordEj.exit

22:                                               ; preds = %10
  %23 = add i32 %1, -1408
  %24 = zext i32 %23 to i64
  %25 = load ptr, ptr %0, align 8
  %26 = getelementptr inbounds nuw %"struct.clang::Builtin::Info", ptr %25, i64 %24
  br label %_ZNK5clang7Builtin7Context9getRecordEj.exit

_ZNK5clang7Builtin7Context9getRecordEj.exit:      ; preds = %8, %14, %22
  %.0.i = phi ptr [ %9, %8 ], [ %21, %14 ], [ %26, %22 ]
  %27 = getelementptr inbounds nuw i8, ptr %.0.i, i64 24
  %28 = load ptr, ptr %27, align 8
  %29 = tail call noundef ptr @strpbrk(ptr noundef %28, ptr noundef %4) #14
  %.not = icmp ne ptr %29, null
  br i1 %.not, label %30, label %39

30:                                               ; preds = %_ZNK5clang7Builtin7Context9getRecordEj.exit
  %31 = load i8, ptr %29, align 1
  %32 = getelementptr inbounds nuw i8, ptr %4, i64 1
  %33 = load i8, ptr %32, align 1
  %34 = icmp eq i8 %31, %33
  %35 = zext i1 %34 to i8
  store i8 %35, ptr %3, align 1
  %36 = getelementptr inbounds nuw i8, ptr %29, i64 2
  %37 = tail call i64 @strtol(ptr noundef nonnull captures(none) %36, ptr noundef null, i32 noundef 10) #13
  %38 = trunc i64 %37 to i32
  store i32 %38, ptr %2, align 4
  br label %39

39:                                               ; preds = %_ZNK5clang7Builtin7Context9getRecordEj.exit, %30
  ret i1 %.not
}